(dp1
S'Arrows'
p2
(lp3
S'arrow_fired'
p4
aS'arrow_hit_entity'
p5
aS'arrow_hit_player'
p6
aS'arrow_hit_wolf'
p7
aS'arrow_hit_bear'
p8
aS'arrow_hit_stag'
p9
aS'arrow_hit_horse'
p10
aS'arrow_hit_boar'
p11
aS'arrow_hit_chicken'
p12
aS'arrow_hit_building'
p13
asS'Bullets'
p14
(lp15
S'shotgun_fired'
p16
aS'shotgun_hit_player'
p17
aS'shotgun_hit_entity'
p18
aS'shotgun_hit_building'
p19
aS'bullet_fired'
p20
aS'bullet_hit_player'
p21
aS'bullet_hit_entity'
p22
aS'bullet_hit_wolf'
p23
aS'bullet_hit_bear'
p24
aS'bullet_hit_stag'
p25
aS'bullet_hit_horse'
p26
aS'bullet_hit_boar'
p27
aS'bullet_hit_corpse'
p28
aS'bullet_hit_playercorpse'
p29
aS'bullet_hit_sign'
p30
aS'bullet_hit_building'
p31
asS'Combat'
p32
(lp33
S'deaths'
p34
aS'death_fall'
p35
aS'death_suicide'
p36
aS'death_bear'
p37
aS'death_wolf'
p38
aS'death_entity'
p39
aS'wounded'
p40
aS'wounded_assisted'
p41
aS'wounded_healed'
p42
aS'kill_player'
p43
aS'headshot'
p44
aS'kill_wolf'
p45
aS'kill_bear'
p46
aS'kill_horse'
p47
aS'kill_stag'
p48
aS'kill_boar'
p49
aS'kill_chicken'
p50
asS'Harvesting'
p51
(lp52
S'blueprint_studied'
p53
aS'item_drop'
p54
aS'harvest_wood'
p55
aS'harvest_stones'
p56
aS'harvest_metal_ore'
p57
aS'harvest_sulfur_ore'
p58
aS'harvest_skull_wolf'
p59
aS'harvest_wolfmeat_raw'
p60
aS'harvest_cloth'
p61
aS'harvest_fat_animal'
p62
aS'harvest_bone_fragments'
p63
aS'harvest_humanmeat_raw'
p64
aS'harvest_skull_human'
p65
as.